target datalayout = "e-m:e-p270:32:32-p271:32:32-p272:64:64-i64:64-i128:128-f80:128-n8:16:32:64-S128"
target triple = "x86_64-pc-linux-gnu"

%struct.Agobj_s = type { %struct.Agtag_s, ptr }
%struct.Agtag_s = type { i32, i64 }
%struct.Agrec_s = type { ptr, ptr }
%struct.boxf = type { %struct.pointf_s, %struct.pointf_s }
%struct.pointf_s = type { double, double }
%struct.Agnodeinfo_t = type { %struct.Agrec_s, ptr, ptr, %struct.pointf_s, double, double, %struct.boxf, double, double, double, double, double, ptr, ptr, ptr, i8, i8, i8, i8, i32, i32, i32, ptr, double, i8, i8, ptr, ptr, i8, i64, i8, i8, i8, ptr, ptr, %struct.elist, %struct.elist, %struct.elist, %struct.elist, %struct.elist, ptr, i32, ptr, i32, i32, double, %struct.elist, %struct.elist, %struct.elist, %struct.elist, ptr, i32, i32, i32, [1 x double] }
%struct.elist = type { ptr, i64 }
%struct.vtx_data = type { i64, ptr, ptr, ptr, ptr }

; Function Attrs: nounwind uwtable
define internal void @dfsCycle(ptr noundef %0, i32 noundef %1, i32 noundef %2, ptr noundef %3) #0 {
  %5 = alloca ptr, align 8
  %6 = alloca i32, align 4
  %7 = alloca i32, align 4
  %8 = alloca ptr, align 8
  %9 = alloca ptr, align 8
  %10 = alloca ptr, align 8
  %11 = alloca i32, align 4
  %12 = alloca double, align 8
  %13 = alloca i64, align 8
  %14 = alloca i64, align 8
  store ptr %0, ptr %5, align 8, !tbaa !44
  store i32 %1, ptr %6, align 4, !tbaa !47
  store i32 %2, ptr %7, align 4, !tbaa !47
  store ptr %3, ptr %8, align 8, !tbaa !153
  call void @llvm.lifetime.start.p0(i64 8, ptr %9) #15
  call void @llvm.lifetime.start.p0(i64 8, ptr %10) #15
  call void @llvm.lifetime.start.p0(i64 4, ptr %11) #15
  call void @llvm.lifetime.start.p0(i64 8, ptr %12) #15
  %15 = load i32, ptr %7, align 4, !tbaa !47
  %16 = icmp eq i32 %15, 3
  %17 = select i1 %16, double -1.000000e+00, double 1.000000e+00
  store double %17, ptr %12, align 8, !tbaa !53
  %18 = load ptr, ptr %8, align 8, !tbaa !153
  %19 = load i32, ptr %6, align 4, !tbaa !47
  %20 = sext i32 %19 to i64
  %21 = getelementptr inbounds ptr, ptr %18, i64 %20
  %22 = load ptr, ptr %21, align 8, !tbaa !3
  store ptr %22, ptr %9, align 8, !tbaa !3
  %23 = load ptr, ptr %9, align 8, !tbaa !3
  %24 = getelementptr inbounds nuw %struct.Agobj_s, ptr %23, i32 0, i32 1
  %25 = load ptr, ptr %24, align 8, !tbaa !8
  %26 = getelementptr inbounds nuw %struct.Agnodeinfo_t, ptr %25, i32 0, i32 29
  store i64 1, ptr %26, align 8, !tbaa !200
  %27 = load ptr, ptr %9, align 8, !tbaa !3
  %28 = getelementptr inbounds nuw %struct.Agobj_s, ptr %27, i32 0, i32 1
  %29 = load ptr, ptr %28, align 8, !tbaa !8
  %30 = getelementptr inbounds nuw %struct.Agnodeinfo_t, ptr %29, i32 0, i32 30
  store i8 1, ptr %30, align 8, !tbaa !201
  call void @llvm.lifetime.start.p0(i64 8, ptr %13) #15
  store i64 1, ptr %13, align 8, !tbaa !41
  br label %31

31:                                               ; preds = %136, %4
  %32 = load i64, ptr %13, align 8, !tbaa !41
  %33 = load ptr, ptr %5, align 8, !tbaa !44
  %34 = load i32, ptr %6, align 4, !tbaa !47
  %35 = sext i32 %34 to i64
  %36 = getelementptr inbounds %struct.vtx_data, ptr %33, i64 %35
  %37 = getelementptr inbounds nuw %struct.vtx_data, ptr %36, i32 0, i32 0
  %38 = load i64, ptr %37, align 8, !tbaa !197
  %39 = icmp ult i64 %32, %38
  br i1 %39, label %41, label %40

40:                                               ; preds = %31
  call void @llvm.lifetime.end.p0(i64 8, ptr %13) #15
  br label %139

41:                                               ; preds = %31
  %42 = load ptr, ptr %5, align 8, !tbaa !44
  %43 = load i32, ptr %6, align 4, !tbaa !47
  %44 = sext i32 %43 to i64
  %45 = getelementptr inbounds %struct.vtx_data, ptr %42, i64 %44
  %46 = getelementptr inbounds nuw %struct.vtx_data, ptr %45, i32 0, i32 4
  %47 = load ptr, ptr %46, align 8, !tbaa !194
  %48 = load i64, ptr %13, align 8, !tbaa !41
  %49 = getelementptr inbounds nuw float, ptr %47, i64 %48
  %50 = load float, ptr %49, align 4, !tbaa !195
  %51 = fpext float %50 to double
  %52 = fcmp oeq double %51, 1.000000e+00
  br i1 %52, label %53, label %54

53:                                               ; preds = %41
  br label %136

54:                                               ; preds = %41
  %55 = load ptr, ptr %5, align 8, !tbaa !44
  %56 = load i32, ptr %6, align 4, !tbaa !47
  %57 = sext i32 %56 to i64
  %58 = getelementptr inbounds %struct.vtx_data, ptr %55, i64 %57
  %59 = getelementptr inbounds nuw %struct.vtx_data, ptr %58, i32 0, i32 1
  %60 = load ptr, ptr %59, align 8, !tbaa !190
  %61 = load i64, ptr %13, align 8, !tbaa !41
  %62 = getelementptr inbounds nuw i32, ptr %60, i64 %61
  %63 = load i32, ptr %62, align 4, !tbaa !47
  store i32 %63, ptr %11, align 4, !tbaa !47
  %64 = load ptr, ptr %8, align 8, !tbaa !153
  %65 = load i32, ptr %11, align 4, !tbaa !47
  %66 = sext i32 %65 to i64
  %67 = getelementptr inbounds ptr, ptr %64, i64 %66
  %68 = load ptr, ptr %67, align 8, !tbaa !3
  store ptr %68, ptr %10, align 8, !tbaa !3
  %69 = load ptr, ptr %10, align 8, !tbaa !3
  %70 = getelementptr inbounds nuw %struct.Agobj_s, ptr %69, i32 0, i32 1
  %71 = load ptr, ptr %70, align 8, !tbaa !8
  %72 = getelementptr inbounds nuw %struct.Agnodeinfo_t, ptr %71, i32 0, i32 30
  %73 = load i8, ptr %72, align 8, !tbaa !201
  %74 = icmp ne i8 %73, 0
  br i1 %74, label %75, label %122

75:                                               ; preds = %54
  %76 = load double, ptr %12, align 8, !tbaa !53
  %77 = fptrunc double %76 to float
  %78 = load ptr, ptr %5, align 8, !tbaa !44
  %79 = load i32, ptr %6, align 4, !tbaa !47
  %80 = sext i32 %79 to i64
  %81 = getelementptr inbounds %struct.vtx_data, ptr %78, i64 %80
  %82 = getelementptr inbounds nuw %struct.vtx_data, ptr %81, i32 0, i32 4
  %83 = load ptr, ptr %82, align 8, !tbaa !194
  %84 = load i64, ptr %13, align 8, !tbaa !41
  %85 = getelementptr inbounds nuw float, ptr %83, i64 %84
  store float %77, ptr %85, align 4, !tbaa !195
  call void @llvm.lifetime.start.p0(i64 8, ptr %14) #15
  store i64 1, ptr %14, align 8, !tbaa !41
  br label %86

86:                                               ; preds = %110, %75
  %87 = load i64, ptr %14, align 8, !tbaa !41
  %88 = load ptr, ptr %5, align 8, !tbaa !44
  %89 = load i32, ptr %11, align 4, !tbaa !47
  %90 = sext i32 %89 to i64
  %91 = getelementptr inbounds %struct.vtx_data, ptr %88, i64 %90
  %92 = getelementptr inbounds nuw %struct.vtx_data, ptr %91, i32 0, i32 0
  %93 = load i64, ptr %92, align 8, !tbaa !197
  %94 = icmp ult i64 %87, %93
  br i1 %94, label %95, label %107

95:                                               ; preds = %86
  %96 = load ptr, ptr %5, align 8, !tbaa !44
  %97 = load i32, ptr %11, align 4, !tbaa !47
  %98 = sext i32 %97 to i64
  %99 = getelementptr inbounds %struct.vtx_data, ptr %96, i64 %98
  %100 = getelementptr inbounds nuw %struct.vtx_data, ptr %99, i32 0, i32 1
  %101 = load ptr, ptr %100, align 8, !tbaa !190
  %102 = load i64, ptr %14, align 8, !tbaa !41
  %103 = getelementptr inbounds nuw i32, ptr %101, i64 %102
  %104 = load i32, ptr %103, align 4, !tbaa !47
  %105 = load i32, ptr %6, align 4, !tbaa !47
  %106 = icmp ne i32 %104, %105
  br label %107

107:                                              ; preds = %95, %86
  %108 = phi i1 [ false, %86 ], [ %106, %95 ]
  br i1 %108, label %109, label %113

109:                                              ; preds = %107
  br label %110

110:                                              ; preds = %109
  %111 = load i64, ptr %14, align 8, !tbaa !41
  %112 = add i64 %111, 1
  store i64 %112, ptr %14, align 8, !tbaa !41
  br label %86, !llvm.loop !204

113:                                              ; preds = %107
  %114 = load ptr, ptr %5, align 8, !tbaa !44
  %115 = load i32, ptr %11, align 4, !tbaa !47
  %116 = sext i32 %115 to i64
  %117 = getelementptr inbounds %struct.vtx_data, ptr %114, i64 %116
  %118 = getelementptr inbounds nuw %struct.vtx_data, ptr %117, i32 0, i32 4
  %119 = load ptr, ptr %118, align 8, !tbaa !194
  %120 = load i64, ptr %14, align 8, !tbaa !41
  %121 = getelementptr inbounds nuw float, ptr %119, i64 %120
  store float -1.000000e+00, ptr %121, align 4, !tbaa !195
  call void @llvm.lifetime.end.p0(i64 8, ptr %14) #15
  br label %135

122:                                              ; preds = %54
  %123 = load ptr, ptr %10, align 8, !tbaa !3
  %124 = getelementptr inbounds nuw %struct.Agobj_s, ptr %123, i32 0, i32 1
  %125 = load ptr, ptr %124, align 8, !tbaa !8
  %126 = getelementptr inbounds nuw %struct.Agnodeinfo_t, ptr %125, i32 0, i32 29
  %127 = load i64, ptr %126, align 8, !tbaa !200
  %128 = icmp ne i64 %127, 0
  br i1 %128, label %134, label %129

129:                                              ; preds = %122
  %130 = load ptr, ptr %5, align 8, !tbaa !44
  %131 = load i32, ptr %11, align 4, !tbaa !47
  %132 = load i32, ptr %7, align 4, !tbaa !47
  %133 = load ptr, ptr %8, align 8, !tbaa !153
  call void @dfsCycle(ptr noundef %130, i32 noundef %131, i32 noundef %132, ptr noundef %133)
  br label %134

134:                                              ; preds = %129, %122
  br label %135

135:                                              ; preds = %134, %113
  br label %136

136:                                              ; preds = %135, %53
  %137 = load i64, ptr %13, align 8, !tbaa !41
  %138 = add i64 %137, 1
  store i64 %138, ptr %13, align 8, !tbaa !41
  br label %31, !llvm.loop !205

139:                                              ; preds = %40
  %140 = load ptr, ptr %9, align 8, !tbaa !3
  %141 = getelementptr inbounds nuw %struct.Agobj_s, ptr %140, i32 0, i32 1
  %142 = load ptr, ptr %141, align 8, !tbaa !8
  %143 = getelementptr inbounds nuw %struct.Agnodeinfo_t, ptr %142, i32 0, i32 30
  store i8 0, ptr %143, align 8, !tbaa !201
  call void @llvm.lifetime.end.p0(i64 8, ptr %12) #15
  call void @llvm.lifetime.end.p0(i64 4, ptr %11) #15
  call void @llvm.lifetime.end.p0(i64 8, ptr %10) #15
  call void @llvm.lifetime.end.p0(i64 8, ptr %9) #15
  ret void
}