; Function Attrs: nofree nosync nounwind memory(readwrite, inaccessiblemem: none) uwtable
define internal fastcc void @dfsCycle(ptr noundef readonly captures(none) %0, i32 noundef %1, i32 noundef %2, ptr noundef readonly captures(none) %3) unnamed_addr #18 {
  %5 = sext i32 %1 to i64
  %6 = getelementptr inbounds ptr, ptr %3, i64 %5
  %7 = load ptr, ptr %6, align 8, !tbaa !56
  %8 = getelementptr inbounds nuw i8, ptr %7, i64 16
  %9 = load ptr, ptr %8, align 8, !tbaa !3
  %10 = getelementptr inbounds nuw i8, ptr %9, i64 224
  store i64 1, ptr %10, align 8, !tbaa !186
  %11 = getelementptr inbounds nuw i8, ptr %9, i64 232
  store i8 1, ptr %11, align 8, !tbaa !187
  %12 = getelementptr inbounds %struct.vtx_data, ptr %0, i64 %5
  %13 = load i64, ptr %12, align 8, !tbaa !184
  %14 = icmp ugt i64 %13, 1
  br i1 %14, label %.lr.ph45, label %._crit_edge

.lr.ph45:                                         ; preds = %4
  %15 = icmp eq i32 %2, 3
  %16 = getelementptr inbounds nuw i8, ptr %12, i64 32
  %17 = getelementptr inbounds nuw i8, ptr %12, i64 8
  %18 = select i1 %15, float -1.000000e+00, float 1.000000e+00
  br label %21

._crit_edge.loopexit:                             ; preds = %56
  %.pre46 = load ptr, ptr %8, align 8, !tbaa !3
  br label %._crit_edge

._crit_edge:                                      ; preds = %._crit_edge.loopexit, %4
  %19 = phi ptr [ %.pre46, %._crit_edge.loopexit ], [ %9, %4 ]
  %20 = getelementptr inbounds nuw i8, ptr %19, i64 232
  store i8 0, ptr %20, align 8, !tbaa !187
  ret void

21:                                               ; preds = %.lr.ph45, %56
  %22 = phi i64 [ %13, %.lr.ph45 ], [ %57, %56 ]
  %.03844 = phi i64 [ 1, %.lr.ph45 ], [ %58, %56 ]
  %23 = load ptr, ptr %16, align 8, !tbaa !181
  %24 = getelementptr inbounds nuw float, ptr %23, i64 %.03844
  %25 = load float, ptr %24, align 4, !tbaa !182
  %26 = fcmp oeq float %25, 1.000000e+00
  br i1 %26, label %56, label %27

27:                                               ; preds = %21
  %28 = load ptr, ptr %17, align 8, !tbaa !176
  %29 = getelementptr inbounds nuw i32, ptr %28, i64 %.03844
  %30 = load i32, ptr %29, align 4, !tbaa !53
  %31 = sext i32 %30 to i64
  %32 = getelementptr inbounds ptr, ptr %3, i64 %31
  %33 = load ptr, ptr %32, align 8, !tbaa !56
  %34 = getelementptr inbounds nuw i8, ptr %33, i64 16
  %35 = load ptr, ptr %34, align 8, !tbaa !3
  %36 = getelementptr inbounds nuw i8, ptr %35, i64 232
  %37 = load i8, ptr %36, align 8, !tbaa !187
  %.not = icmp eq i8 %37, 0
  br i1 %.not, label %52, label %38

38:                                               ; preds = %27
  store float %18, ptr %24, align 4, !tbaa !182
  %39 = getelementptr inbounds %struct.vtx_data, ptr %0, i64 %31
  %40 = load i64, ptr %39, align 8, !tbaa !184
  %41 = icmp ugt i64 %40, 1
  br i1 %41, label %.lr.ph, label %.critedge

.lr.ph:                                           ; preds = %38
  %42 = getelementptr inbounds nuw i8, ptr %39, i64 8
  %43 = load ptr, ptr %42, align 8, !tbaa !176
  br label %44

44:                                               ; preds = %.lr.ph, %47
  %.041 = phi i64 [ 1, %.lr.ph ], [ %48, %47 ]
  %45 = getelementptr inbounds nuw i32, ptr %43, i64 %.041
  %46 = load i32, ptr %45, align 4, !tbaa !53
  %.not40 = icmp eq i32 %46, %1
  br i1 %.not40, label %.critedge, label %47

47:                                               ; preds = %44
  %48 = add nuw i64 %.041, 1
  %exitcond.not = icmp eq i64 %48, %40
  br i1 %exitcond.not, label %.critedge, label %44, !llvm.loop !191

.critedge:                                        ; preds = %44, %47, %38
  %.0.lcssa = phi i64 [ 1, %38 ], [ %40, %47 ], [ %.041, %44 ]
  %49 = getelementptr inbounds nuw i8, ptr %39, i64 32
  %50 = load ptr, ptr %49, align 8, !tbaa !181
  %51 = getelementptr inbounds nuw float, ptr %50, i64 %.0.lcssa
  store float -1.000000e+00, ptr %51, align 4, !tbaa !182
  br label %56

52:                                               ; preds = %27
  %53 = getelementptr inbounds nuw i8, ptr %35, i64 224
  %54 = load i64, ptr %53, align 8, !tbaa !186
  %.not39 = icmp eq i64 %54, 0
  br i1 %.not39, label %55, label %56

55:                                               ; preds = %52
  tail call fastcc void @dfsCycle(ptr noundef nonnull %0, i32 noundef %30, i32 noundef %2, ptr noundef nonnull %3)
  %.pre = load i64, ptr %12, align 8, !tbaa !184
  br label %56

56:                                               ; preds = %.critedge, %55, %52, %21
  %57 = phi i64 [ %22, %.critedge ], [ %.pre, %55 ], [ %22, %52 ], [ %22, %21 ]
  %58 = add nuw i64 %.03844, 1
  %59 = icmp ult i64 %58, %57
  br i1 %59, label %21, label %._crit_edge.loopexit, !llvm.loop !192
}